target datalayout = "e-m:e-p270:32:32-p271:32:32-p272:64:64-i64:64-i128:128-f80:128-n8:16:32:64-S128"
target triple = "x86_64-pc-linux-gnu"

%"class.gmx::SetPrecision" = type { %"class.gmx::IOutputAdapter", i32, i64 }
%"class.gmx::IOutputAdapter" = type { ptr }
%struct.t_trxframe = type { i32, i8, i32, i8, i64, i8, float, i8, i8, float, i32, i8, ptr, i8, float, i8, ptr, i8, ptr, i8, ptr, i8, [3 x [3 x float]], i8, i32, i8, ptr }

; Function Attrs: mustprogress nounwind uwtable
define linkonce_odr noundef double @_ZSt3powIiiEN9__gnu_cxx9__promoteIDTplcvNS1_IT_Xsr3std12__is_integerIS2_EE7__valueEE6__typeELi0EcvNS1_IT0_Xsr3std12__is_integerIS5_EE7__valueEE6__typeELi0EEXsr3std12__is_integerIS8_EE7__valueEE6__typeES2_S5_(i32 noundef %0, i32 noundef %1) #0 comdat {
  %3 = alloca i32, align 4
  %4 = alloca i32, align 4
  store i32 %0, ptr %3, align 4
  store i32 %1, ptr %4, align 4
  %5 = load i32, ptr %3, align 4
  %6 = sitofp i32 %5 to double
  %7 = load i32, ptr %4, align 4
  %8 = sitofp i32 %7 to double
  %9 = call double @pow(double noundef %6, double noundef %8) #10
  ret double %9
}

; Function Attrs: mustprogress uwtable
define void @_ZN3gmx12SetPrecision12processFrameEiP10t_trxframe(ptr noundef nonnull align 8 dereferenceable(24) %0, i32 noundef %1, ptr noundef %2) unnamed_addr #1 align 2 {
  %4 = alloca ptr, align 8
  %5 = alloca i32, align 4
  %6 = alloca ptr, align 8
  store ptr %0, ptr %4, align 8
  store i32 %1, ptr %5, align 4
  store ptr %2, ptr %6, align 8
  %7 = load ptr, ptr %4, align 8
  %8 = getelementptr inbounds %"class.gmx::SetPrecision", ptr %7, i32 0, i32 1
  %9 = load i32, ptr %8, align 8
  %10 = call noundef double @_ZSt3powIiiEN9__gnu_cxx9__promoteIDTplcvNS1_IT_Xsr3std12__is_integerIS2_EE7__valueEE6__typeELi0EcvNS1_IT0_Xsr3std12__is_integerIS5_EE7__valueEE6__typeELi0EEXsr3std12__is_integerIS8_EE7__valueEE6__typeES2_S5_(i32 noundef 10, i32 noundef %9)
  %11 = fptrunc double %10 to float
  %12 = load ptr, ptr %6, align 8
  %13 = getelementptr inbounds %struct.t_trxframe, ptr %12, i32 0, i32 14
  store float %11, ptr %13, align 4
  %14 = load ptr, ptr %6, align 8
  %15 = getelementptr inbounds %struct.t_trxframe, ptr %14, i32 0, i32 13
  store i8 1, ptr %15, align 8
  ret void
}