; Function Attrs: mustprogress nofree nounwind willreturn memory(write, argmem: readwrite) uwtable
define void @_ZN3gmx12SetPrecision12processFrameEiP10t_trxframe(ptr nocapture noundef nonnull readonly align 8 dereferenceable(24) %0, i32 %1, ptr nocapture noundef writeonly %2) unnamed_addr #1 align 2 {
  %4 = getelementptr inbounds i8, ptr %0, i64 8
  %5 = load i32, ptr %4, align 8
  %6 = sitofp i32 %5 to double
  %7 = tail call noundef double @pow(double noundef 1.000000e+01, double noundef %6) #15
  %8 = fptrunc double %7 to float
  %9 = getelementptr inbounds i8, ptr %2, i64 60
  store float %8, ptr %9, align 4
  %10 = getelementptr inbounds i8, ptr %2, i64 56
  store i8 1, ptr %10, align 8
  ret void
}